target datalayout = "e-m:e-p270:32:32-p271:32:32-p272:64:64-i64:64-i128:128-f80:128-n8:16:32:64-S128"
target triple = "x86_64-pc-linux-gnu"

%struct.Py_complex = type { double, double }

; Function Attrs: nounwind uwtable
define dso_local { double, double } @_Py_c_prod(double %0, double %1, double %2, double %3) #0 {
  %5 = alloca %struct.Py_complex, align 8
  %6 = alloca %struct.Py_complex, align 8
  %7 = alloca %struct.Py_complex, align 8
  %8 = alloca double, align 8
  %9 = alloca double, align 8
  %10 = alloca double, align 8
  %11 = alloca double, align 8
  %12 = alloca double, align 8
  %13 = alloca double, align 8
  %14 = alloca double, align 8
  %15 = alloca double, align 8
  %16 = alloca i32, align 4
  %17 = getelementptr inbounds nuw { double, double }, ptr %6, i32 0, i32 0
  store double %0, ptr %17, align 8
  %18 = getelementptr inbounds nuw { double, double }, ptr %6, i32 0, i32 1
  store double %1, ptr %18, align 8
  %19 = getelementptr inbounds nuw { double, double }, ptr %7, i32 0, i32 0
  store double %2, ptr %19, align 8
  %20 = getelementptr inbounds nuw { double, double }, ptr %7, i32 0, i32 1
  store double %3, ptr %20, align 8
  call void @llvm.lifetime.start.p0(i64 8, ptr %8) #9
  %21 = getelementptr inbounds nuw %struct.Py_complex, ptr %6, i32 0, i32 0
  %22 = load double, ptr %21, align 8, !tbaa !4
  store double %22, ptr %8, align 8, !tbaa !10
  call void @llvm.lifetime.start.p0(i64 8, ptr %9) #9
  %23 = getelementptr inbounds nuw %struct.Py_complex, ptr %6, i32 0, i32 1
  %24 = load double, ptr %23, align 8, !tbaa !9
  store double %24, ptr %9, align 8, !tbaa !10
  call void @llvm.lifetime.start.p0(i64 8, ptr %10) #9
  %25 = getelementptr inbounds nuw %struct.Py_complex, ptr %7, i32 0, i32 0
  %26 = load double, ptr %25, align 8, !tbaa !4
  store double %26, ptr %10, align 8, !tbaa !10
  call void @llvm.lifetime.start.p0(i64 8, ptr %11) #9
  %27 = getelementptr inbounds nuw %struct.Py_complex, ptr %7, i32 0, i32 1
  %28 = load double, ptr %27, align 8, !tbaa !9
  store double %28, ptr %11, align 8, !tbaa !10
  call void @llvm.lifetime.start.p0(i64 8, ptr %12) #9
  %29 = load double, ptr %8, align 8, !tbaa !10
  %30 = load double, ptr %10, align 8, !tbaa !10
  %31 = fmul double %29, %30
  store double %31, ptr %12, align 8, !tbaa !10
  call void @llvm.lifetime.start.p0(i64 8, ptr %13) #9
  %32 = load double, ptr %9, align 8, !tbaa !10
  %33 = load double, ptr %11, align 8, !tbaa !10
  %34 = fmul double %32, %33
  store double %34, ptr %13, align 8, !tbaa !10
  call void @llvm.lifetime.start.p0(i64 8, ptr %14) #9
  %35 = load double, ptr %8, align 8, !tbaa !10
  %36 = load double, ptr %11, align 8, !tbaa !10
  %37 = fmul double %35, %36
  store double %37, ptr %14, align 8, !tbaa !10
  call void @llvm.lifetime.start.p0(i64 8, ptr %15) #9
  %38 = load double, ptr %9, align 8, !tbaa !10
  %39 = load double, ptr %10, align 8, !tbaa !10
  %40 = fmul double %38, %39
  store double %40, ptr %15, align 8, !tbaa !10
  %41 = getelementptr inbounds nuw %struct.Py_complex, ptr %5, i32 0, i32 0
  %42 = load double, ptr %12, align 8, !tbaa !10
  %43 = load double, ptr %13, align 8, !tbaa !10
  %44 = fsub double %42, %43
  store double %44, ptr %41, align 8, !tbaa !4
  %45 = getelementptr inbounds nuw %struct.Py_complex, ptr %5, i32 0, i32 1
  %46 = load double, ptr %14, align 8, !tbaa !10
  %47 = load double, ptr %15, align 8, !tbaa !10
  %48 = fadd double %46, %47
  store double %48, ptr %45, align 8, !tbaa !9
  %49 = getelementptr inbounds nuw %struct.Py_complex, ptr %5, i32 0, i32 0
  %50 = load double, ptr %49, align 8, !tbaa !4
  %51 = call i1 @llvm.is.fpclass.f64(double %50, i32 3)
  br i1 %51, label %52, label %248

52:                                               ; preds = %4
  %53 = getelementptr inbounds nuw %struct.Py_complex, ptr %5, i32 0, i32 1
  %54 = load double, ptr %53, align 8, !tbaa !9
  %55 = call i1 @llvm.is.fpclass.f64(double %54, i32 3)
  br i1 %55, label %56, label %248

56:                                               ; preds = %52
  call void @llvm.lifetime.start.p0(i64 4, ptr %16) #9
  store i32 0, ptr %16, align 4, !tbaa !12
  %57 = load double, ptr %8, align 8, !tbaa !10
  %58 = call double @llvm.fabs.f64(double %57) #10
  %59 = fcmp oeq double %58, 0x7FF0000000000000
  %60 = bitcast double %57 to i64
  %61 = icmp slt i64 %60, 0
  %62 = select i1 %61, i32 -1, i32 1
  %63 = select i1 %59, i32 %62, i32 0
  %64 = icmp ne i32 %63, 0
  br i1 %64, label %74, label %65

65:                                               ; preds = %56
  %66 = load double, ptr %9, align 8, !tbaa !10
  %67 = call double @llvm.fabs.f64(double %66) #10
  %68 = fcmp oeq double %67, 0x7FF0000000000000
  %69 = bitcast double %66 to i64
  %70 = icmp slt i64 %69, 0
  %71 = select i1 %70, i32 -1, i32 1
  %72 = select i1 %68, i32 %71, i32 0
  %73 = icmp ne i32 %72, 0
  br i1 %73, label %74, label %109

74:                                               ; preds = %65, %56
  %75 = load double, ptr %8, align 8, !tbaa !10
  %76 = call double @llvm.fabs.f64(double %75) #10
  %77 = fcmp oeq double %76, 0x7FF0000000000000
  %78 = bitcast double %75 to i64
  %79 = icmp slt i64 %78, 0
  %80 = select i1 %79, i32 -1, i32 1
  %81 = select i1 %77, i32 %80, i32 0
  %82 = icmp ne i32 %81, 0
  %83 = select i1 %82, double 1.000000e+00, double 0.000000e+00
  %84 = load double, ptr %8, align 8, !tbaa !10
  %85 = call double @llvm.copysign.f64(double %83, double %84)
  store double %85, ptr %8, align 8, !tbaa !10
  %86 = load double, ptr %9, align 8, !tbaa !10
  %87 = call double @llvm.fabs.f64(double %86) #10
  %88 = fcmp oeq double %87, 0x7FF0000000000000
  %89 = bitcast double %86 to i64
  %90 = icmp slt i64 %89, 0
  %91 = select i1 %90, i32 -1, i32 1
  %92 = select i1 %88, i32 %91, i32 0
  %93 = icmp ne i32 %92, 0
  %94 = select i1 %93, double 1.000000e+00, double 0.000000e+00
  %95 = load double, ptr %9, align 8, !tbaa !10
  %96 = call double @llvm.copysign.f64(double %94, double %95)
  store double %96, ptr %9, align 8, !tbaa !10
  %97 = load double, ptr %10, align 8, !tbaa !10
  %98 = call i1 @llvm.is.fpclass.f64(double %97, i32 3)
  br i1 %98, label %99, label %102

99:                                               ; preds = %74
  %100 = load double, ptr %10, align 8, !tbaa !10
  %101 = call double @llvm.copysign.f64(double 0.000000e+00, double %100)
  store double %101, ptr %10, align 8, !tbaa !10
  br label %102

102:                                              ; preds = %99, %74
  %103 = load double, ptr %11, align 8, !tbaa !10
  %104 = call i1 @llvm.is.fpclass.f64(double %103, i32 3)
  br i1 %104, label %105, label %108

105:                                              ; preds = %102
  %106 = load double, ptr %11, align 8, !tbaa !10
  %107 = call double @llvm.copysign.f64(double 0.000000e+00, double %106)
  store double %107, ptr %11, align 8, !tbaa !10
  br label %108

108:                                              ; preds = %105, %102
  store i32 1, ptr %16, align 4, !tbaa !12
  br label %109

109:                                              ; preds = %108, %65
  %110 = load double, ptr %10, align 8, !tbaa !10
  %111 = call double @llvm.fabs.f64(double %110) #10
  %112 = fcmp oeq double %111, 0x7FF0000000000000
  %113 = bitcast double %110 to i64
  %114 = icmp slt i64 %113, 0
  %115 = select i1 %114, i32 -1, i32 1
  %116 = select i1 %112, i32 %115, i32 0
  %117 = icmp ne i32 %116, 0
  br i1 %117, label %127, label %118

118:                                              ; preds = %109
  %119 = load double, ptr %11, align 8, !tbaa !10
  %120 = call double @llvm.fabs.f64(double %119) #10
  %121 = fcmp oeq double %120, 0x7FF0000000000000
  %122 = bitcast double %119 to i64
  %123 = icmp slt i64 %122, 0
  %124 = select i1 %123, i32 -1, i32 1
  %125 = select i1 %121, i32 %124, i32 0
  %126 = icmp ne i32 %125, 0
  br i1 %126, label %127, label %162

127:                                              ; preds = %118, %109
  %128 = load double, ptr %10, align 8, !tbaa !10
  %129 = call double @llvm.fabs.f64(double %128) #10
  %130 = fcmp oeq double %129, 0x7FF0000000000000
  %131 = bitcast double %128 to i64
  %132 = icmp slt i64 %131, 0
  %133 = select i1 %132, i32 -1, i32 1
  %134 = select i1 %130, i32 %133, i32 0
  %135 = icmp ne i32 %134, 0
  %136 = select i1 %135, double 1.000000e+00, double 0.000000e+00
  %137 = load double, ptr %10, align 8, !tbaa !10
  %138 = call double @llvm.copysign.f64(double %136, double %137)
  store double %138, ptr %10, align 8, !tbaa !10
  %139 = load double, ptr %11, align 8, !tbaa !10
  %140 = call double @llvm.fabs.f64(double %139) #10
  %141 = fcmp oeq double %140, 0x7FF0000000000000
  %142 = bitcast double %139 to i64
  %143 = icmp slt i64 %142, 0
  %144 = select i1 %143, i32 -1, i32 1
  %145 = select i1 %141, i32 %144, i32 0
  %146 = icmp ne i32 %145, 0
  %147 = select i1 %146, double 1.000000e+00, double 0.000000e+00
  %148 = load double, ptr %11, align 8, !tbaa !10
  %149 = call double @llvm.copysign.f64(double %147, double %148)
  store double %149, ptr %11, align 8, !tbaa !10
  %150 = load double, ptr %8, align 8, !tbaa !10
  %151 = call i1 @llvm.is.fpclass.f64(double %150, i32 3)
  br i1 %151, label %152, label %155

152:                                              ; preds = %127
  %153 = load double, ptr %8, align 8, !tbaa !10
  %154 = call double @llvm.copysign.f64(double 0.000000e+00, double %153)
  store double %154, ptr %8, align 8, !tbaa !10
  br label %155

155:                                              ; preds = %152, %127
  %156 = load double, ptr %9, align 8, !tbaa !10
  %157 = call i1 @llvm.is.fpclass.f64(double %156, i32 3)
  br i1 %157, label %158, label %161

158:                                              ; preds = %155
  %159 = load double, ptr %9, align 8, !tbaa !10
  %160 = call double @llvm.copysign.f64(double 0.000000e+00, double %159)
  store double %160, ptr %9, align 8, !tbaa !10
  br label %161

161:                                              ; preds = %158, %155
  store i32 1, ptr %16, align 4, !tbaa !12
  br label %162

162:                                              ; preds = %161, %118
  %163 = load i32, ptr %16, align 4, !tbaa !12
  %164 = icmp ne i32 %163, 0
  br i1 %164, label %226, label %165

165:                                              ; preds = %162
  %166 = load double, ptr %12, align 8, !tbaa !10
  %167 = call double @llvm.fabs.f64(double %166) #10
  %168 = fcmp oeq double %167, 0x7FF0000000000000
  %169 = bitcast double %166 to i64
  %170 = icmp slt i64 %169, 0
  %171 = select i1 %170, i32 -1, i32 1
  %172 = select i1 %168, i32 %171, i32 0
  %173 = icmp ne i32 %172, 0
  br i1 %173, label %201, label %174

174:                                              ; preds = %165
  %175 = load double, ptr %13, align 8, !tbaa !10
  %176 = call double @llvm.fabs.f64(double %175) #10
  %177 = fcmp oeq double %176, 0x7FF0000000000000
  %178 = bitcast double %175 to i64
  %179 = icmp slt i64 %178, 0
  %180 = select i1 %179, i32 -1, i32 1
  %181 = select i1 %177, i32 %180, i32 0
  %182 = icmp ne i32 %181, 0
  br i1 %182, label %201, label %183

183:                                              ; preds = %174
  %184 = load double, ptr %14, align 8, !tbaa !10
  %185 = call double @llvm.fabs.f64(double %184) #10
  %186 = fcmp oeq double %185, 0x7FF0000000000000
  %187 = bitcast double %184 to i64
  %188 = icmp slt i64 %187, 0
  %189 = select i1 %188, i32 -1, i32 1
  %190 = select i1 %186, i32 %189, i32 0
  %191 = icmp ne i32 %190, 0
  br i1 %191, label %201, label %192

192:                                              ; preds = %183
  %193 = load double, ptr %15, align 8, !tbaa !10
  %194 = call double @llvm.fabs.f64(double %193) #10
  %195 = fcmp oeq double %194, 0x7FF0000000000000
  %196 = bitcast double %193 to i64
  %197 = icmp slt i64 %196, 0
  %198 = select i1 %197, i32 -1, i32 1
  %199 = select i1 %195, i32 %198, i32 0
  %200 = icmp ne i32 %199, 0
  br i1 %200, label %201, label %226

201:                                              ; preds = %192, %183, %174, %165
  %202 = load double, ptr %8, align 8, !tbaa !10
  %203 = call i1 @llvm.is.fpclass.f64(double %202, i32 3)
  br i1 %203, label %204, label %207

204:                                              ; preds = %201
  %205 = load double, ptr %8, align 8, !tbaa !10
  %206 = call double @llvm.copysign.f64(double 0.000000e+00, double %205)
  store double %206, ptr %8, align 8, !tbaa !10
  br label %207

207:                                              ; preds = %204, %201
  %208 = load double, ptr %9, align 8, !tbaa !10
  %209 = call i1 @llvm.is.fpclass.f64(double %208, i32 3)
  br i1 %209, label %210, label %213

210:                                              ; preds = %207
  %211 = load double, ptr %9, align 8, !tbaa !10
  %212 = call double @llvm.copysign.f64(double 0.000000e+00, double %211)
  store double %212, ptr %9, align 8, !tbaa !10
  br label %213

213:                                              ; preds = %210, %207
  %214 = load double, ptr %10, align 8, !tbaa !10
  %215 = call i1 @llvm.is.fpclass.f64(double %214, i32 3)
  br i1 %215, label %216, label %219

216:                                              ; preds = %213
  %217 = load double, ptr %10, align 8, !tbaa !10
  %218 = call double @llvm.copysign.f64(double 0.000000e+00, double %217)
  store double %218, ptr %10, align 8, !tbaa !10
  br label %219

219:                                              ; preds = %216, %213
  %220 = load double, ptr %11, align 8, !tbaa !10
  %221 = call i1 @llvm.is.fpclass.f64(double %220, i32 3)
  br i1 %221, label %222, label %225

222:                                              ; preds = %219
  %223 = load double, ptr %11, align 8, !tbaa !10
  %224 = call double @llvm.copysign.f64(double 0.000000e+00, double %223)
  store double %224, ptr %11, align 8, !tbaa !10
  br label %225

225:                                              ; preds = %222, %219
  store i32 1, ptr %16, align 4, !tbaa !12
  br label %226

226:                                              ; preds = %225, %192, %162
  %227 = load i32, ptr %16, align 4, !tbaa !12
  %228 = icmp ne i32 %227, 0
  br i1 %228, label %229, label %247

229:                                              ; preds = %226
  %230 = load double, ptr %8, align 8, !tbaa !10
  %231 = load double, ptr %10, align 8, !tbaa !10
  %232 = load double, ptr %9, align 8, !tbaa !10
  %233 = load double, ptr %11, align 8, !tbaa !10
  %234 = fmul double %232, %233
  %235 = fneg double %234
  %236 = call double @llvm.fmuladd.f64(double %230, double %231, double %235)
  %237 = fmul double 0x7FF0000000000000, %236
  %238 = getelementptr inbounds nuw %struct.Py_complex, ptr %5, i32 0, i32 0
  store double %237, ptr %238, align 8, !tbaa !4
  %239 = load double, ptr %8, align 8, !tbaa !10
  %240 = load double, ptr %11, align 8, !tbaa !10
  %241 = load double, ptr %9, align 8, !tbaa !10
  %242 = load double, ptr %10, align 8, !tbaa !10
  %243 = fmul double %241, %242
  %244 = call double @llvm.fmuladd.f64(double %239, double %240, double %243)
  %245 = fmul double 0x7FF0000000000000, %244
  %246 = getelementptr inbounds nuw %struct.Py_complex, ptr %5, i32 0, i32 1
  store double %245, ptr %246, align 8, !tbaa !9
  br label %247

247:                                              ; preds = %229, %226
  call void @llvm.lifetime.end.p0(i64 4, ptr %16) #9
  br label %248

248:                                              ; preds = %247, %52, %4
  call void @llvm.lifetime.end.p0(i64 8, ptr %15) #9
  call void @llvm.lifetime.end.p0(i64 8, ptr %14) #9
  call void @llvm.lifetime.end.p0(i64 8, ptr %13) #9
  call void @llvm.lifetime.end.p0(i64 8, ptr %12) #9
  call void @llvm.lifetime.end.p0(i64 8, ptr %11) #9
  call void @llvm.lifetime.end.p0(i64 8, ptr %10) #9
  call void @llvm.lifetime.end.p0(i64 8, ptr %9) #9
  call void @llvm.lifetime.end.p0(i64 8, ptr %8) #9
  %249 = load { double, double }, ptr %5, align 8
  ret { double, double } %249
}