; Function Attrs: mustprogress nofree norecurse nosync nounwind willreturn memory(none) uwtable
define dso_local { double, double } @_Py_c_prod(double %0, double %1, double %2, double %3) local_unnamed_addr #0 {
  %5 = fmul double %0, %2
  %6 = fmul double %1, %3
  %7 = fmul double %0, %3
  %8 = fmul double %1, %2
  %9 = fsub double %5, %6
  %10 = fadd double %8, %7
  %11 = fcmp uno double %9, 0.000000e+00
  %12 = fcmp uno double %10, 0.000000e+00
  %or.cond = and i1 %11, %12
  br i1 %or.cond, label %13, label %68

13:                                               ; preds = %4
  %14 = tail call double @llvm.fabs.f64(double %0) #14
  %15 = fcmp oeq double %14, 0x7FF0000000000000
  %.pre = tail call double @llvm.fabs.f64(double %1) #14
  br i1 %15, label %._crit_edge, label %16

16:                                               ; preds = %13
  %17 = fcmp oeq double %.pre, 0x7FF0000000000000
  br i1 %17, label %._crit_edge, label %27

._crit_edge:                                      ; preds = %13, %16
  %18 = phi double [ 0.000000e+00, %16 ], [ 1.000000e+00, %13 ]
  %19 = tail call double @llvm.copysign.f64(double %18, double %0)
  %20 = fcmp oeq double %.pre, 0x7FF0000000000000
  %21 = select i1 %20, double 1.000000e+00, double 0.000000e+00
  %22 = tail call double @llvm.copysign.f64(double %21, double %1)
  %23 = fcmp uno double %2, 0.000000e+00
  %24 = tail call double @llvm.copysign.f64(double 0.000000e+00, double %2)
  %.170 = select i1 %23, double %24, double %2
  %25 = fcmp uno double %3, 0.000000e+00
  %26 = tail call double @llvm.copysign.f64(double 0.000000e+00, double %3)
  %.165 = select i1 %25, double %26, double %3
  br label %27

27:                                               ; preds = %._crit_edge, %16
  %.069 = phi double [ %.170, %._crit_edge ], [ %2, %16 ]
  %.064 = phi double [ %.165, %._crit_edge ], [ %3, %16 ]
  %.059 = phi double [ %22, %._crit_edge ], [ %1, %16 ]
  %.056 = phi double [ %19, %._crit_edge ], [ %0, %16 ]
  %.not = phi i1 [ false, %._crit_edge ], [ true, %16 ]
  %28 = tail call double @llvm.fabs.f64(double %.069) #14
  %29 = fcmp oeq double %28, 0x7FF0000000000000
  %.pre97 = tail call double @llvm.fabs.f64(double %.064) #14
  br i1 %29, label %.thread, label %30

30:                                               ; preds = %27
  %31 = fcmp oeq double %.pre97, 0x7FF0000000000000
  br i1 %31, label %.thread, label %41

.thread:                                          ; preds = %27, %30
  %32 = phi double [ 0.000000e+00, %30 ], [ 1.000000e+00, %27 ]
  %33 = tail call double @llvm.copysign.f64(double %32, double %.069)
  %34 = fcmp oeq double %.pre97, 0x7FF0000000000000
  %35 = select i1 %34, double 1.000000e+00, double 0.000000e+00
  %36 = tail call double @llvm.copysign.f64(double %35, double %.064)
  %37 = fcmp uno double %.056, 0.000000e+00
  %38 = tail call double @llvm.copysign.f64(double 0.000000e+00, double %.056)
  %.258 = select i1 %37, double %38, double %.056
  %39 = fcmp uno double %.059, 0.000000e+00
  %40 = tail call double @llvm.copysign.f64(double 0.000000e+00, double %.059)
  %.261 = select i1 %39, double %40, double %.059
  br label %60

41:                                               ; preds = %30
  br i1 %.not, label %42, label %60

42:                                               ; preds = %41
  %43 = tail call double @llvm.fabs.f64(double %5) #14
  %44 = fcmp oeq double %43, 0x7FF0000000000000
  %45 = tail call double @llvm.fabs.f64(double %6) #14
  %46 = fcmp oeq double %45, 0x7FF0000000000000
  %or.cond76 = or i1 %44, %46
  %47 = tail call double @llvm.fabs.f64(double %7) #14
  %48 = fcmp oeq double %47, 0x7FF0000000000000
  %or.cond78 = or i1 %48, %or.cond76
  %49 = tail call double @llvm.fabs.f64(double %8) #14
  %50 = fcmp oeq double %49, 0x7FF0000000000000
  %or.cond80 = or i1 %50, %or.cond78
  br i1 %or.cond80, label %51, label %68

51:                                               ; preds = %42
  %52 = fcmp uno double %.056, 0.000000e+00
  %53 = tail call double @llvm.copysign.f64(double 0.000000e+00, double %.056)
  %.4 = select i1 %52, double %53, double %.056
  %54 = fcmp uno double %.059, 0.000000e+00
  %55 = tail call double @llvm.copysign.f64(double 0.000000e+00, double %.059)
  %.463 = select i1 %54, double %55, double %.059
  %56 = fcmp uno double %.069, 0.000000e+00
  %57 = tail call double @llvm.copysign.f64(double 0.000000e+00, double %.069)
  %.473 = select i1 %56, double %57, double %.069
  %58 = fcmp uno double %.064, 0.000000e+00
  %59 = tail call double @llvm.copysign.f64(double 0.000000e+00, double %.064)
  %.468 = select i1 %58, double %59, double %.064
  br label %60

60:                                               ; preds = %41, %51, %.thread
  %.372.ph = phi double [ %33, %.thread ], [ %.473, %51 ], [ %.069, %41 ]
  %.367.ph = phi double [ %36, %.thread ], [ %.468, %51 ], [ %.064, %41 ]
  %.362.ph = phi double [ %.261, %.thread ], [ %.463, %51 ], [ %.059, %41 ]
  %.3.ph = phi double [ %.258, %.thread ], [ %.4, %51 ], [ %.056, %41 ]
  %61 = fneg double %.367.ph
  %62 = fmul double %.362.ph, %61
  %63 = tail call double @llvm.fmuladd.f64(double %.3.ph, double %.372.ph, double %62)
  %64 = fmul double %63, 0x7FF0000000000000
  %65 = fmul double %.372.ph, %.362.ph
  %66 = tail call double @llvm.fmuladd.f64(double %.3.ph, double %.367.ph, double %65)
  %67 = fmul double %66, 0x7FF0000000000000
  br label %68

68:                                               ; preds = %42, %60, %4
  %.sroa.055.0 = phi double [ %9, %4 ], [ %64, %60 ], [ %9, %42 ]
  %.sroa.4.0 = phi double [ %10, %4 ], [ %67, %60 ], [ %10, %42 ]
  %.fca.0.insert = insertvalue { double, double } poison, double %.sroa.055.0, 0
  %.fca.1.insert = insertvalue { double, double } %.fca.0.insert, double %.sroa.4.0, 1
  ret { double, double } %.fca.1.insert
}